target datalayout = "e-m:e-p270:32:32-p271:32:32-p272:64:64-i64:64-i128:128-f80:128-n8:16:32:64-S128"
target triple = "x86_64-pc-linux-gnu"

%class.State = type { [315 x i32], [315 x i16], i32, ptr, [2 x ptr] }

; Function Attrs: mustprogress nounwind uwtable
define hidden void @_ZN5State10_sub_Op_IfEPK4Node(ptr noundef nonnull align 8 dereferenceable(1920) %0, ptr noundef %1) #1 align 2 {
  %3 = alloca ptr, align 8
  %4 = alloca ptr, align 8
  %5 = alloca i32, align 4
  %6 = alloca i32, align 4
  %7 = alloca i32, align 4
  %8 = alloca i32, align 4
  store ptr %0, ptr %3, align 8
  store ptr %1, ptr %4, align 8
  %9 = load ptr, ptr %3, align 8
  %10 = getelementptr inbounds %class.State, ptr %9, i32 0, i32 4
  %11 = getelementptr inbounds [2 x ptr], ptr %10, i64 0, i64 0
  %12 = load ptr, ptr %11, align 8
  %13 = icmp ne ptr %12, null
  br i1 %13, label %14, label %59

14:                                               ; preds = %2
  %15 = getelementptr inbounds %class.State, ptr %9, i32 0, i32 4
  %16 = getelementptr inbounds [2 x ptr], ptr %15, i64 0, i64 0
  %17 = load ptr, ptr %16, align 8
  %18 = getelementptr inbounds %class.State, ptr %17, i32 0, i32 1
  %19 = getelementptr inbounds [315 x i16], ptr %18, i64 0, i64 112
  %20 = load i16, ptr %19, align 4
  %21 = zext i16 %20 to i32
  %22 = and i32 %21, 1
  %23 = icmp ne i32 %22, 0
  br i1 %23, label %24, label %59

24:                                               ; preds = %14
  %25 = getelementptr inbounds %class.State, ptr %9, i32 0, i32 4
  %26 = getelementptr inbounds [2 x ptr], ptr %25, i64 0, i64 1
  %27 = load ptr, ptr %26, align 8
  %28 = icmp ne ptr %27, null
  br i1 %28, label %29, label %59

29:                                               ; preds = %24
  %30 = getelementptr inbounds %class.State, ptr %9, i32 0, i32 4
  %31 = getelementptr inbounds [2 x ptr], ptr %30, i64 0, i64 1
  %32 = load ptr, ptr %31, align 8
  %33 = getelementptr inbounds %class.State, ptr %32, i32 0, i32 1
  %34 = getelementptr inbounds [315 x i16], ptr %33, i64 0, i64 77
  %35 = load i16, ptr %34, align 2
  %36 = zext i16 %35 to i32
  %37 = and i32 %36, 1
  %38 = icmp ne i32 %37, 0
  br i1 %38, label %39, label %59

39:                                               ; preds = %29
  %40 = getelementptr inbounds %class.State, ptr %9, i32 0, i32 4
  %41 = getelementptr inbounds [2 x ptr], ptr %40, i64 0, i64 0
  %42 = load ptr, ptr %41, align 8
  %43 = getelementptr inbounds %class.State, ptr %42, i32 0, i32 0
  %44 = getelementptr inbounds [315 x i32], ptr %43, i64 0, i64 112
  %45 = load i32, ptr %44, align 8
  %46 = getelementptr inbounds %class.State, ptr %9, i32 0, i32 4
  %47 = getelementptr inbounds [2 x ptr], ptr %46, i64 0, i64 1
  %48 = load ptr, ptr %47, align 8
  %49 = getelementptr inbounds %class.State, ptr %48, i32 0, i32 0
  %50 = getelementptr inbounds [315 x i32], ptr %49, i64 0, i64 77
  %51 = load i32, ptr %50, align 4
  %52 = add i32 %45, %51
  %53 = add i32 %52, 200
  store i32 %53, ptr %5, align 4
  %54 = load i32, ptr %5, align 4
  %55 = getelementptr inbounds %class.State, ptr %9, i32 0, i32 0
  %56 = getelementptr inbounds [315 x i32], ptr %55, i64 0, i64 0
  store i32 %54, ptr %56, align 8
  %57 = getelementptr inbounds %class.State, ptr %9, i32 0, i32 1
  %58 = getelementptr inbounds [315 x i16], ptr %57, i64 0, i64 0
  store i16 2123, ptr %58, align 4
  br label %59

59:                                               ; preds = %39, %29, %24, %14, %2
  %60 = getelementptr inbounds %class.State, ptr %9, i32 0, i32 4
  %61 = getelementptr inbounds [2 x ptr], ptr %60, i64 0, i64 0
  %62 = load ptr, ptr %61, align 8
  %63 = icmp ne ptr %62, null
  br i1 %63, label %64, label %123

64:                                               ; preds = %59
  %65 = getelementptr inbounds %class.State, ptr %9, i32 0, i32 4
  %66 = getelementptr inbounds [2 x ptr], ptr %65, i64 0, i64 0
  %67 = load ptr, ptr %66, align 8
  %68 = getelementptr inbounds %class.State, ptr %67, i32 0, i32 1
  %69 = getelementptr inbounds [315 x i16], ptr %68, i64 0, i64 111
  %70 = load i16, ptr %69, align 2
  %71 = zext i16 %70 to i32
  %72 = and i32 %71, 1
  %73 = icmp ne i32 %72, 0
  br i1 %73, label %74, label %123

74:                                               ; preds = %64
  %75 = getelementptr inbounds %class.State, ptr %9, i32 0, i32 4
  %76 = getelementptr inbounds [2 x ptr], ptr %75, i64 0, i64 1
  %77 = load ptr, ptr %76, align 8
  %78 = icmp ne ptr %77, null
  br i1 %78, label %79, label %123

79:                                               ; preds = %74
  %80 = getelementptr inbounds %class.State, ptr %9, i32 0, i32 4
  %81 = getelementptr inbounds [2 x ptr], ptr %80, i64 0, i64 1
  %82 = load ptr, ptr %81, align 8
  %83 = getelementptr inbounds %class.State, ptr %82, i32 0, i32 1
  %84 = getelementptr inbounds [315 x i16], ptr %83, i64 0, i64 77
  %85 = load i16, ptr %84, align 2
  %86 = zext i16 %85 to i32
  %87 = and i32 %86, 1
  %88 = icmp ne i32 %87, 0
  br i1 %88, label %89, label %123

89:                                               ; preds = %79
  %90 = getelementptr inbounds %class.State, ptr %9, i32 0, i32 4
  %91 = getelementptr inbounds [2 x ptr], ptr %90, i64 0, i64 0
  %92 = load ptr, ptr %91, align 8
  %93 = getelementptr inbounds %class.State, ptr %92, i32 0, i32 0
  %94 = getelementptr inbounds [315 x i32], ptr %93, i64 0, i64 111
  %95 = load i32, ptr %94, align 4
  %96 = getelementptr inbounds %class.State, ptr %9, i32 0, i32 4
  %97 = getelementptr inbounds [2 x ptr], ptr %96, i64 0, i64 1
  %98 = load ptr, ptr %97, align 8
  %99 = getelementptr inbounds %class.State, ptr %98, i32 0, i32 0
  %100 = getelementptr inbounds [315 x i32], ptr %99, i64 0, i64 77
  %101 = load i32, ptr %100, align 4
  %102 = add i32 %95, %101
  %103 = add i32 %102, 200
  store i32 %103, ptr %6, align 4
  %104 = getelementptr inbounds %class.State, ptr %9, i32 0, i32 1
  %105 = getelementptr inbounds [315 x i16], ptr %104, i64 0, i64 0
  %106 = load i16, ptr %105, align 4
  %107 = zext i16 %106 to i32
  %108 = and i32 %107, 1
  %109 = icmp eq i32 %108, 0
  br i1 %109, label %116, label %110

110:                                              ; preds = %89
  %111 = getelementptr inbounds %class.State, ptr %9, i32 0, i32 0
  %112 = getelementptr inbounds [315 x i32], ptr %111, i64 0, i64 0
  %113 = load i32, ptr %112, align 8
  %114 = load i32, ptr %6, align 4
  %115 = icmp ugt i32 %113, %114
  br i1 %115, label %116, label %122

116:                                              ; preds = %110, %89
  %117 = load i32, ptr %6, align 4
  %118 = getelementptr inbounds %class.State, ptr %9, i32 0, i32 0
  %119 = getelementptr inbounds [315 x i32], ptr %118, i64 0, i64 0
  store i32 %117, ptr %119, align 8
  %120 = getelementptr inbounds %class.State, ptr %9, i32 0, i32 1
  %121 = getelementptr inbounds [315 x i16], ptr %120, i64 0, i64 0
  store i16 2121, ptr %121, align 4
  br label %122

122:                                              ; preds = %116, %110
  br label %123

123:                                              ; preds = %122, %79, %74, %64, %59
  %124 = getelementptr inbounds %class.State, ptr %9, i32 0, i32 4
  %125 = getelementptr inbounds [2 x ptr], ptr %124, i64 0, i64 0
  %126 = load ptr, ptr %125, align 8
  %127 = icmp ne ptr %126, null
  br i1 %127, label %128, label %187

128:                                              ; preds = %123
  %129 = getelementptr inbounds %class.State, ptr %9, i32 0, i32 4
  %130 = getelementptr inbounds [2 x ptr], ptr %129, i64 0, i64 0
  %131 = load ptr, ptr %130, align 8
  %132 = getelementptr inbounds %class.State, ptr %131, i32 0, i32 1
  %133 = getelementptr inbounds [315 x i16], ptr %132, i64 0, i64 110
  %134 = load i16, ptr %133, align 4
  %135 = zext i16 %134 to i32
  %136 = and i32 %135, 1
  %137 = icmp ne i32 %136, 0
  br i1 %137, label %138, label %187

138:                                              ; preds = %128
  %139 = getelementptr inbounds %class.State, ptr %9, i32 0, i32 4
  %140 = getelementptr inbounds [2 x ptr], ptr %139, i64 0, i64 1
  %141 = load ptr, ptr %140, align 8
  %142 = icmp ne ptr %141, null
  br i1 %142, label %143, label %187

143:                                              ; preds = %138
  %144 = getelementptr inbounds %class.State, ptr %9, i32 0, i32 4
  %145 = getelementptr inbounds [2 x ptr], ptr %144, i64 0, i64 1
  %146 = load ptr, ptr %145, align 8
  %147 = getelementptr inbounds %class.State, ptr %146, i32 0, i32 1
  %148 = getelementptr inbounds [315 x i16], ptr %147, i64 0, i64 76
  %149 = load i16, ptr %148, align 4
  %150 = zext i16 %149 to i32
  %151 = and i32 %150, 1
  %152 = icmp ne i32 %151, 0
  br i1 %152, label %153, label %187

153:                                              ; preds = %143
  %154 = getelementptr inbounds %class.State, ptr %9, i32 0, i32 4
  %155 = getelementptr inbounds [2 x ptr], ptr %154, i64 0, i64 0
  %156 = load ptr, ptr %155, align 8
  %157 = getelementptr inbounds %class.State, ptr %156, i32 0, i32 0
  %158 = getelementptr inbounds [315 x i32], ptr %157, i64 0, i64 110
  %159 = load i32, ptr %158, align 8
  %160 = getelementptr inbounds %class.State, ptr %9, i32 0, i32 4
  %161 = getelementptr inbounds [2 x ptr], ptr %160, i64 0, i64 1
  %162 = load ptr, ptr %161, align 8
  %163 = getelementptr inbounds %class.State, ptr %162, i32 0, i32 0
  %164 = getelementptr inbounds [315 x i32], ptr %163, i64 0, i64 76
  %165 = load i32, ptr %164, align 8
  %166 = add i32 %159, %165
  %167 = add i32 %166, 300
  store i32 %167, ptr %7, align 4
  %168 = getelementptr inbounds %class.State, ptr %9, i32 0, i32 1
  %169 = getelementptr inbounds [315 x i16], ptr %168, i64 0, i64 0
  %170 = load i16, ptr %169, align 4
  %171 = zext i16 %170 to i32
  %172 = and i32 %171, 1
  %173 = icmp eq i32 %172, 0
  br i1 %173, label %180, label %174

174:                                              ; preds = %153
  %175 = getelementptr inbounds %class.State, ptr %9, i32 0, i32 0
  %176 = getelementptr inbounds [315 x i32], ptr %175, i64 0, i64 0
  %177 = load i32, ptr %176, align 8
  %178 = load i32, ptr %7, align 4
  %179 = icmp ugt i32 %177, %178
  br i1 %179, label %180, label %186

180:                                              ; preds = %174, %153
  %181 = load i32, ptr %7, align 4
  %182 = getelementptr inbounds %class.State, ptr %9, i32 0, i32 0
  %183 = getelementptr inbounds [315 x i32], ptr %182, i64 0, i64 0
  store i32 %181, ptr %183, align 8
  %184 = getelementptr inbounds %class.State, ptr %9, i32 0, i32 1
  %185 = getelementptr inbounds [315 x i16], ptr %184, i64 0, i64 0
  store i16 2119, ptr %185, align 4
  br label %186

186:                                              ; preds = %180, %174
  br label %187

187:                                              ; preds = %186, %143, %138, %128, %123
  %188 = getelementptr inbounds %class.State, ptr %9, i32 0, i32 4
  %189 = getelementptr inbounds [2 x ptr], ptr %188, i64 0, i64 0
  %190 = load ptr, ptr %189, align 8
  %191 = icmp ne ptr %190, null
  br i1 %191, label %192, label %251

192:                                              ; preds = %187
  %193 = getelementptr inbounds %class.State, ptr %9, i32 0, i32 4
  %194 = getelementptr inbounds [2 x ptr], ptr %193, i64 0, i64 0
  %195 = load ptr, ptr %194, align 8
  %196 = getelementptr inbounds %class.State, ptr %195, i32 0, i32 1
  %197 = getelementptr inbounds [315 x i16], ptr %196, i64 0, i64 109
  %198 = load i16, ptr %197, align 2
  %199 = zext i16 %198 to i32
  %200 = and i32 %199, 1
  %201 = icmp ne i32 %200, 0
  br i1 %201, label %202, label %251

202:                                              ; preds = %192
  %203 = getelementptr inbounds %class.State, ptr %9, i32 0, i32 4
  %204 = getelementptr inbounds [2 x ptr], ptr %203, i64 0, i64 1
  %205 = load ptr, ptr %204, align 8
  %206 = icmp ne ptr %205, null
  br i1 %206, label %207, label %251

207:                                              ; preds = %202
  %208 = getelementptr inbounds %class.State, ptr %9, i32 0, i32 4
  %209 = getelementptr inbounds [2 x ptr], ptr %208, i64 0, i64 1
  %210 = load ptr, ptr %209, align 8
  %211 = getelementptr inbounds %class.State, ptr %210, i32 0, i32 1
  %212 = getelementptr inbounds [315 x i16], ptr %211, i64 0, i64 75
  %213 = load i16, ptr %212, align 2
  %214 = zext i16 %213 to i32
  %215 = and i32 %214, 1
  %216 = icmp ne i32 %215, 0
  br i1 %216, label %217, label %251

217:                                              ; preds = %207
  %218 = getelementptr inbounds %class.State, ptr %9, i32 0, i32 4
  %219 = getelementptr inbounds [2 x ptr], ptr %218, i64 0, i64 0
  %220 = load ptr, ptr %219, align 8
  %221 = getelementptr inbounds %class.State, ptr %220, i32 0, i32 0
  %222 = getelementptr inbounds [315 x i32], ptr %221, i64 0, i64 109
  %223 = load i32, ptr %222, align 4
  %224 = getelementptr inbounds %class.State, ptr %9, i32 0, i32 4
  %225 = getelementptr inbounds [2 x ptr], ptr %224, i64 0, i64 1
  %226 = load ptr, ptr %225, align 8
  %227 = getelementptr inbounds %class.State, ptr %226, i32 0, i32 0
  %228 = getelementptr inbounds [315 x i32], ptr %227, i64 0, i64 75
  %229 = load i32, ptr %228, align 4
  %230 = add i32 %223, %229
  %231 = add i32 %230, 300
  store i32 %231, ptr %8, align 4
  %232 = getelementptr inbounds %class.State, ptr %9, i32 0, i32 1
  %233 = getelementptr inbounds [315 x i16], ptr %232, i64 0, i64 0
  %234 = load i16, ptr %233, align 4
  %235 = zext i16 %234 to i32
  %236 = and i32 %235, 1
  %237 = icmp eq i32 %236, 0
  br i1 %237, label %244, label %238

238:                                              ; preds = %217
  %239 = getelementptr inbounds %class.State, ptr %9, i32 0, i32 0
  %240 = getelementptr inbounds [315 x i32], ptr %239, i64 0, i64 0
  %241 = load i32, ptr %240, align 8
  %242 = load i32, ptr %8, align 4
  %243 = icmp ugt i32 %241, %242
  br i1 %243, label %244, label %250

244:                                              ; preds = %238, %217
  %245 = load i32, ptr %8, align 4
  %246 = getelementptr inbounds %class.State, ptr %9, i32 0, i32 0
  %247 = getelementptr inbounds [315 x i32], ptr %246, i64 0, i64 0
  store i32 %245, ptr %247, align 8
  %248 = getelementptr inbounds %class.State, ptr %9, i32 0, i32 1
  %249 = getelementptr inbounds [315 x i16], ptr %248, i64 0, i64 0
  store i16 2115, ptr %249, align 4
  br label %250

250:                                              ; preds = %244, %238
  br label %251

251:                                              ; preds = %250, %207, %202, %192, %187
  ret void
}