; Function Attrs: mustprogress nofree norecurse nosync nounwind willreturn memory(read, argmem: readwrite, inaccessiblemem: none) uwtable
define hidden void @_ZN5State10_sub_Op_IfEPK4Node(ptr nocapture noundef nonnull align 8 dereferenceable(1920) %0, ptr nocapture readnone %1) local_unnamed_addr #1 align 2 {
  %3 = getelementptr inbounds i8, ptr %0, i64 1904
  %4 = load ptr, ptr %3, align 8
  %.not = icmp eq ptr %4, null
  br i1 %.not, label %99, label %5

5:                                                ; preds = %2
  %6 = getelementptr inbounds i8, ptr %4, i64 1484
  %7 = load i16, ptr %6, align 4
  %8 = and i16 %7, 1
  %.not14 = icmp eq i16 %8, 0
  br i1 %.not14, label %24, label %9

9:                                                ; preds = %5
  %10 = getelementptr inbounds i8, ptr %0, i64 1912
  %11 = load ptr, ptr %10, align 8
  %.not15 = icmp eq ptr %11, null
  br i1 %.not15, label %24, label %12

12:                                               ; preds = %9
  %13 = getelementptr inbounds i8, ptr %11, i64 1414
  %14 = load i16, ptr %13, align 2
  %15 = and i16 %14, 1
  %.not16 = icmp eq i16 %15, 0
  br i1 %.not16, label %24, label %16

16:                                               ; preds = %12
  %17 = getelementptr inbounds i8, ptr %4, i64 448
  %18 = load i32, ptr %17, align 8
  %19 = getelementptr inbounds i8, ptr %11, i64 308
  %20 = load i32, ptr %19, align 4
  %21 = add i32 %18, 200
  %22 = add i32 %21, %20
  store i32 %22, ptr %0, align 8
  %23 = getelementptr inbounds i8, ptr %0, i64 1260
  store i16 2123, ptr %23, align 4
  br label %24

24:                                               ; preds = %16, %12, %9, %5
  %25 = getelementptr inbounds i8, ptr %4, i64 1482
  %26 = load i16, ptr %25, align 2
  %27 = and i16 %26, 1
  %.not18 = icmp eq i16 %27, 0
  br i1 %.not18, label %49, label %28

28:                                               ; preds = %24
  %29 = getelementptr inbounds i8, ptr %0, i64 1912
  %30 = load ptr, ptr %29, align 8
  %.not19 = icmp eq ptr %30, null
  br i1 %.not19, label %49, label %31

31:                                               ; preds = %28
  %32 = getelementptr inbounds i8, ptr %30, i64 1414
  %33 = load i16, ptr %32, align 2
  %34 = and i16 %33, 1
  %.not20 = icmp eq i16 %34, 0
  br i1 %.not20, label %49, label %35

35:                                               ; preds = %31
  %36 = getelementptr inbounds i8, ptr %4, i64 444
  %37 = load i32, ptr %36, align 4
  %38 = getelementptr inbounds i8, ptr %30, i64 308
  %39 = load i32, ptr %38, align 4
  %40 = add i32 %37, 200
  %41 = add i32 %40, %39
  %42 = getelementptr inbounds i8, ptr %0, i64 1260
  %43 = load i16, ptr %42, align 4
  %44 = and i16 %43, 1
  %45 = icmp eq i16 %44, 0
  %46 = load i32, ptr %0, align 8
  %47 = icmp ugt i32 %46, %41
  %or.cond = select i1 %45, i1 true, i1 %47
  br i1 %or.cond, label %48, label %49

48:                                               ; preds = %35
  store i32 %41, ptr %0, align 8
  store i16 2121, ptr %42, align 4
  br label %49

49:                                               ; preds = %35, %48, %31, %28, %24
  %50 = getelementptr inbounds i8, ptr %4, i64 1480
  %51 = load i16, ptr %50, align 4
  %52 = and i16 %51, 1
  %.not22 = icmp eq i16 %52, 0
  br i1 %.not22, label %74, label %53

53:                                               ; preds = %49
  %54 = getelementptr inbounds i8, ptr %0, i64 1912
  %55 = load ptr, ptr %54, align 8
  %.not23 = icmp eq ptr %55, null
  br i1 %.not23, label %74, label %56

56:                                               ; preds = %53
  %57 = getelementptr inbounds i8, ptr %55, i64 1412
  %58 = load i16, ptr %57, align 4
  %59 = and i16 %58, 1
  %.not24 = icmp eq i16 %59, 0
  br i1 %.not24, label %74, label %60

60:                                               ; preds = %56
  %61 = getelementptr inbounds i8, ptr %4, i64 440
  %62 = load i32, ptr %61, align 8
  %63 = getelementptr inbounds i8, ptr %55, i64 304
  %64 = load i32, ptr %63, align 8
  %65 = add i32 %62, 300
  %66 = add i32 %65, %64
  %67 = getelementptr inbounds i8, ptr %0, i64 1260
  %68 = load i16, ptr %67, align 4
  %69 = and i16 %68, 1
  %70 = icmp eq i16 %69, 0
  %71 = load i32, ptr %0, align 8
  %72 = icmp ugt i32 %71, %66
  %or.cond31 = select i1 %70, i1 true, i1 %72
  br i1 %or.cond31, label %73, label %74

73:                                               ; preds = %60
  store i32 %66, ptr %0, align 8
  store i16 2119, ptr %67, align 4
  br label %74

74:                                               ; preds = %60, %73, %56, %53, %49
  %75 = getelementptr inbounds i8, ptr %4, i64 1478
  %76 = load i16, ptr %75, align 2
  %77 = and i16 %76, 1
  %.not26 = icmp eq i16 %77, 0
  br i1 %.not26, label %99, label %78

78:                                               ; preds = %74
  %79 = getelementptr inbounds i8, ptr %0, i64 1912
  %80 = load ptr, ptr %79, align 8
  %.not27 = icmp eq ptr %80, null
  br i1 %.not27, label %99, label %81

81:                                               ; preds = %78
  %82 = getelementptr inbounds i8, ptr %80, i64 1410
  %83 = load i16, ptr %82, align 2
  %84 = and i16 %83, 1
  %.not28 = icmp eq i16 %84, 0
  br i1 %.not28, label %99, label %85

85:                                               ; preds = %81
  %86 = getelementptr inbounds i8, ptr %4, i64 436
  %87 = load i32, ptr %86, align 4
  %88 = getelementptr inbounds i8, ptr %80, i64 300
  %89 = load i32, ptr %88, align 4
  %90 = add i32 %87, 300
  %91 = add i32 %90, %89
  %92 = getelementptr inbounds i8, ptr %0, i64 1260
  %93 = load i16, ptr %92, align 4
  %94 = and i16 %93, 1
  %95 = icmp eq i16 %94, 0
  %96 = load i32, ptr %0, align 8
  %97 = icmp ugt i32 %96, %91
  %or.cond33 = select i1 %95, i1 true, i1 %97
  br i1 %or.cond33, label %98, label %99

98:                                               ; preds = %85
  store i32 %91, ptr %0, align 8
  store i16 2115, ptr %92, align 4
  br label %99

99:                                               ; preds = %2, %85, %98, %81, %78, %74
  ret void
}